; Function Attrs: mustprogress nofree norecurse nosync nounwind willreturn memory(read, inaccessiblemem: none) uwtable
define hidden noundef zeroext i1 @_ZN4llvm22AggressiveAntiDepState6IsLiveEj(ptr noundef nonnull readonly align 8 captures(none) dereferenceable(152) %0, i32 noundef %1) local_unnamed_addr #2 align 2 {
  %3 = getelementptr inbounds nuw i8, ptr %0, i64 104
  %4 = zext i32 %1 to i64
  %5 = load ptr, ptr %3, align 8
  %6 = getelementptr inbounds nuw i32, ptr %5, i64 %4
  %7 = load i32, ptr %6, align 4
  %.not = icmp eq i32 %7, -1
  br i1 %.not, label %14, label %8

8:                                                ; preds = %2
  %9 = getelementptr inbounds nuw i8, ptr %0, i64 128
  %10 = load ptr, ptr %9, align 8
  %11 = getelementptr inbounds nuw i32, ptr %10, i64 %4
  %12 = load i32, ptr %11, align 4
  %13 = icmp eq i32 %12, -1
  br label %14

14:                                               ; preds = %8, %2
  %15 = phi i1 [ false, %2 ], [ %13, %8 ]
  ret i1 %15
}